; Function Attrs: mustprogress nofree norecurse nosync nounwind willreturn memory(argmem: readwrite) uwtable
define void @_ZNK5Ipopt15SolveStatistics19NumberOfEvaluationsERiS1_S1_S1_S1_(ptr noundef nonnull readonly align 8 captures(none) dereferenceable(160) %0, ptr noundef nonnull writeonly align 4 captures(none) dereferenceable(4) initializes((0, 4)) %1, ptr noundef nonnull writeonly align 4 captures(none) dereferenceable(4) initializes((0, 4)) %2, ptr noundef nonnull writeonly align 4 captures(none) dereferenceable(4) initializes((0, 4)) %3, ptr noundef nonnull writeonly align 4 captures(none) dereferenceable(4) initializes((0, 4)) %4, ptr noundef nonnull writeonly align 4 captures(none) dereferenceable(4) initializes((0, 4)) %5) unnamed_addr #5 align 2 {
  %7 = getelementptr inbounds nuw i8, ptr %0, i64 40
  %8 = load i32, ptr %7, align 8, !tbaa !43
  store i32 %8, ptr %1, align 4, !tbaa !63
  %9 = getelementptr inbounds nuw i8, ptr %0, i64 44
  %10 = load i32, ptr %9, align 4, !tbaa !44
  store i32 %10, ptr %2, align 4, !tbaa !63
  %11 = getelementptr inbounds nuw i8, ptr %0, i64 48
  %12 = load i32, ptr %11, align 8, !tbaa !45
  store i32 %12, ptr %3, align 4, !tbaa !63
  %13 = getelementptr inbounds nuw i8, ptr %0, i64 52
  %14 = load i32, ptr %13, align 4, !tbaa !46
  store i32 %14, ptr %4, align 4, !tbaa !63
  %15 = getelementptr inbounds nuw i8, ptr %0, i64 56
  %16 = load i32, ptr %15, align 8, !tbaa !47
  store i32 %16, ptr %5, align 4, !tbaa !63
  ret void
}